target datalayout = "e-m:e-p270:32:32-p271:32:32-p272:64:64-i64:64-i128:128-f80:128-n8:16:32:64-S128"
target triple = "x86_64-pc-linux-gnu"

%struct._php_stream_xport_param = type { i32, i8, %struct.anon.8, %struct.anon.9 }
%struct.anon.8 = type { ptr, i64, ptr, ptr, ptr, i64, i32, i32, i32 }
%struct.anon.9 = type { ptr, ptr, i32, ptr, ptr, i32, i32 }

; Function Attrs: nounwind uwtable
define i32 @php_stream_xport_bind(ptr noundef %0, ptr noundef %1, i64 noundef %2, ptr noundef %3) #0 {
  %5 = alloca i32, align 4
  %6 = alloca ptr, align 8
  %7 = alloca ptr, align 8
  %8 = alloca i64, align 8
  %9 = alloca ptr, align 8
  %10 = alloca %struct._php_stream_xport_param, align 8
  %11 = alloca i32, align 4
  store ptr %0, ptr %6, align 8
  store ptr %1, ptr %7, align 8
  store i64 %2, ptr %8, align 8
  store ptr %3, ptr %9, align 8
  call void @llvm.memset.p0.i64(ptr align 8 %10, i8 0, i64 120, i1 false)
  %12 = getelementptr inbounds %struct._php_stream_xport_param, ptr %10, i32 0, i32 0
  store i32 0, ptr %12, align 8
  %13 = load ptr, ptr %7, align 8
  %14 = getelementptr inbounds %struct._php_stream_xport_param, ptr %10, i32 0, i32 2
  %15 = getelementptr inbounds %struct.anon.8, ptr %14, i32 0, i32 0
  store ptr %13, ptr %15, align 8
  %16 = load i64, ptr %8, align 8
  %17 = getelementptr inbounds %struct._php_stream_xport_param, ptr %10, i32 0, i32 2
  %18 = getelementptr inbounds %struct.anon.8, ptr %17, i32 0, i32 1
  store i64 %16, ptr %18, align 8
  %19 = load ptr, ptr %9, align 8
  %20 = icmp ne ptr %19, null
  %21 = select i1 %20, i32 1, i32 0
  %22 = getelementptr inbounds %struct._php_stream_xport_param, ptr %10, i32 0, i32 1
  %23 = trunc i32 %21 to i8
  %24 = load i8, ptr %22, align 4
  %25 = and i8 %23, 1
  %26 = shl i8 %25, 2
  %27 = and i8 %24, -5
  %28 = or i8 %27, %26
  store i8 %28, ptr %22, align 4
  %29 = load ptr, ptr %6, align 8
  %30 = call i32 @_php_stream_set_option(ptr noundef %29, i32 noundef 7, i32 noundef 0, ptr noundef %10)
  store i32 %30, ptr %11, align 4
  %31 = load i32, ptr %11, align 4
  %32 = icmp eq i32 %31, 0
  br i1 %32, label %33, label %45

33:                                               ; preds = %4
  %34 = load ptr, ptr %9, align 8
  %35 = icmp ne ptr %34, null
  br i1 %35, label %36, label %41

36:                                               ; preds = %33
  %37 = getelementptr inbounds %struct._php_stream_xport_param, ptr %10, i32 0, i32 3
  %38 = getelementptr inbounds %struct.anon.9, ptr %37, i32 0, i32 4
  %39 = load ptr, ptr %38, align 8
  %40 = load ptr, ptr %9, align 8
  store ptr %39, ptr %40, align 8
  br label %41

41:                                               ; preds = %36, %33
  %42 = getelementptr inbounds %struct._php_stream_xport_param, ptr %10, i32 0, i32 3
  %43 = getelementptr inbounds %struct.anon.9, ptr %42, i32 0, i32 5
  %44 = load i32, ptr %43, align 8
  store i32 %44, ptr %5, align 4
  br label %47

45:                                               ; preds = %4
  %46 = load i32, ptr %11, align 4
  store i32 %46, ptr %5, align 4
  br label %47

47:                                               ; preds = %45, %41
  %48 = load i32, ptr %5, align 4
  ret i32 %48
}