; Function Attrs: nounwind uwtable
define i32 @php_stream_xport_bind(ptr noundef %0, ptr noundef %1, i64 noundef %2, ptr noundef writeonly %3) local_unnamed_addr #1 {
  %5 = alloca %struct._php_stream_xport_param, align 8
  %6 = getelementptr inbounds i8, ptr %5, i64 8
  call void @llvm.memset.p0.i64(ptr noundef nonnull align 8 dereferenceable(120) %5, i8 0, i64 120, i1 false)
  store ptr %1, ptr %6, align 8
  %7 = getelementptr inbounds i8, ptr %5, i64 16
  store i64 %2, ptr %7, align 8
  %.not.not = icmp eq ptr %3, null
  %8 = getelementptr inbounds i8, ptr %5, i64 4
  %9 = select i1 %.not.not, i8 0, i8 4
  store i8 %9, ptr %8, align 4
  %10 = call i32 @_php_stream_set_option(ptr noundef %0, i32 noundef 7, i32 noundef 0, ptr noundef nonnull %5) #14
  %11 = icmp eq i32 %10, 0
  br i1 %11, label %12, label %19

12:                                               ; preds = %4
  br i1 %.not.not, label %16, label %13

13:                                               ; preds = %12
  %14 = getelementptr inbounds i8, ptr %5, i64 104
  %15 = load ptr, ptr %14, align 8
  store ptr %15, ptr %3, align 8
  br label %16

16:                                               ; preds = %13, %12
  %17 = getelementptr inbounds i8, ptr %5, i64 112
  %18 = load i32, ptr %17, align 8
  br label %19

19:                                               ; preds = %4, %16
  %.0 = phi i32 [ %18, %16 ], [ %10, %4 ]
  ret i32 %.0
}